target datalayout = "e-m:e-p270:32:32-p271:32:32-p272:64:64-i64:64-i128:128-f80:128-n8:16:32:64-S128"
target triple = "x86_64-pc-linux-gnu"

%struct.RBasic = type { i64, i64 }
%struct.RNode = type { i64, %struct.rb_code_location_struct, i32 }
%struct.rb_code_location_struct = type { %struct.rb_code_position_struct, %struct.rb_code_position_struct }
%struct.rb_code_position_struct = type { i32, i32 }
%struct.RNode_LIST = type { %struct.RNode, ptr, %union.anon.13, ptr }
%union.anon.13 = type { i64 }
%struct.RString = type { %struct.RBasic, i64, %union.anon.14 }
%union.anon.14 = type { %struct.anon.15 }
%struct.anon.15 = type { ptr, %union.anon.16 }
%union.anon.16 = type { i64 }

@default_indent = internal constant [5 x i8] c"|   \00", align 1
@.str.12 = private unnamed_addr constant [5 x i8] c"    \00", align 1
@.str.13 = private unnamed_addr constant [10 x i8] c"+- %.*s:\0A\00", align 1
@.str.21 = private unnamed_addr constant [10 x i8] c"+- %.*s: \00", align 1
@.str.24 = private unnamed_addr constant [2 x i8] c"\0A\00", align 1
@.str.260 = private unnamed_addr constant [4 x i8] c"%ld\00", align 1
@.str.485 = private unnamed_addr constant [20 x i8] c"as.nd_alen (length)\00", align 1
@.str.486 = private unnamed_addr constant [18 x i8] c"nd_head (element)\00", align 1
@.str.487 = private unnamed_addr constant [23 x i8] c"nd_next (next element)\00", align 1

; Function Attrs: inlinehint nounwind sspstrong uwtable
define internal i64 @rbimpl_strlen(ptr noundef nonnull %0) #5 {
  %2 = alloca ptr, align 8
  store ptr %0, ptr %2, align 8, !tbaa !18
  %3 = load ptr, ptr %2, align 8, !tbaa !18
  %4 = call i64 @strlen(ptr noundef %3) #14
  ret i64 %4
}

; Function Attrs: inlinehint nounwind sspstrong uwtable
define internal zeroext i1 @nd_type_p(ptr noundef %0, i32 noundef %1) #5 {
  %3 = alloca ptr, align 8
  %4 = alloca i32, align 4
  store ptr %0, ptr %3, align 8, !tbaa !13
  store i32 %1, ptr %4, align 4, !tbaa !16
  %5 = load ptr, ptr %3, align 8, !tbaa !13
  %6 = getelementptr inbounds nuw %struct.RNode, ptr %5, i32 0, i32 0
  %7 = load i64, ptr %6, align 8, !tbaa !20
  %8 = and i64 %7, 32512
  %9 = lshr i64 %8, 8
  %10 = trunc i64 %9 to i32
  %11 = load i32, ptr %4, align 4, !tbaa !16
  %12 = icmp eq i32 %10, %11
  ret i1 %12
}

; Function Attrs: inlinehint nounwind sspstrong willreturn memory(read) uwtable
define internal i64 @RSTRING_LEN(i64 noundef %0) #3 {
  %2 = alloca i64, align 8
  store i64 %0, ptr %2, align 8, !tbaa !7
  %3 = load i64, ptr %2, align 8, !tbaa !7
  %4 = inttoptr i64 %3 to ptr
  %5 = getelementptr inbounds nuw %struct.RString, ptr %4, i32 0, i32 1
  %6 = load i64, ptr %5, align 8, !tbaa !747
  ret i64 %6
}

; Function Attrs: inlinehint nounwind sspstrong uwtable
define internal i64 @rbimpl_str_cat_cstr(i64 noundef %0, ptr noundef nonnull %1) #5 {
  %3 = alloca i64, align 8
  %4 = alloca ptr, align 8
  %5 = alloca i64, align 8
  store i64 %0, ptr %3, align 8, !tbaa !7
  store ptr %1, ptr %4, align 8, !tbaa !18
  call void @llvm.lifetime.start.p0(i64 8, ptr %5) #13
  %6 = load ptr, ptr %4, align 8, !tbaa !18
  %7 = call i64 @rbimpl_strlen(ptr noundef %6)
  store i64 %7, ptr %5, align 8, !tbaa !7
  %8 = load i64, ptr %3, align 8, !tbaa !7
  %9 = load ptr, ptr %4, align 8, !tbaa !18
  %10 = load i64, ptr %5, align 8, !tbaa !7
  %11 = call i64 @rb_str_cat(i64 noundef %8, ptr noundef %9, i64 noundef %10)
  call void @llvm.lifetime.end.p0(i64 8, ptr %5) #13
  ret i64 %11
}

; Function Attrs: nounwind sspstrong uwtable
define internal void @add_indent(i64 noundef %0, i64 noundef %1) #0 {
  %3 = alloca i64, align 8
  %4 = alloca i64, align 8
  store i64 %0, ptr %3, align 8, !tbaa !7
  store i64 %1, ptr %4, align 8, !tbaa !7
  %5 = load i64, ptr %3, align 8, !tbaa !7
  %6 = load i64, ptr %4, align 8, !tbaa !7
  %7 = call i64 @rb_str_concat(i64 noundef %5, i64 noundef %6)
  ret void
}

; Function Attrs: nounwind sspstrong uwtable
define internal void @dump_array(i64 noundef %0, i64 noundef %1, i32 noundef %2, ptr noundef %3) #0 {
  %5 = alloca i64, align 8
  %6 = alloca i64, align 8
  %7 = alloca i32, align 4
  %8 = alloca ptr, align 8
  %9 = alloca i32, align 4
  %10 = alloca ptr, align 8
  store i64 %0, ptr %5, align 8, !tbaa !7
  store i64 %1, ptr %6, align 8, !tbaa !7
  store i32 %2, ptr %7, align 4, !tbaa !16
  store ptr %3, ptr %8, align 8, !tbaa !13
  call void @llvm.lifetime.start.p0(i64 4, ptr %9) #13
  call void @llvm.lifetime.start.p0(i64 8, ptr %10) #13
  store ptr @default_indent, ptr %10, align 8, !tbaa !18
  %11 = load i64, ptr %5, align 8, !tbaa !7
  %12 = load i64, ptr %6, align 8, !tbaa !7
  call void @add_indent(i64 noundef %11, i64 noundef %12)
  %13 = load i64, ptr %5, align 8, !tbaa !7
  %14 = load i32, ptr %7, align 4, !tbaa !16
  %15 = icmp ne i32 %14, 0
  %16 = select i1 %15, i64 19, i64 10
  %17 = trunc i64 %16 to i32
  %18 = call i64 (i64, ptr, ...) @rb_str_catf(i64 noundef %13, ptr noundef @.str.21, i32 noundef %17, ptr noundef @.str.485)
  store i32 1, ptr %9, align 4, !tbaa !16
  br label %19

19:                                               ; preds = %28, %4
  %20 = load i32, ptr %9, align 4, !tbaa !16
  %21 = icmp ne i32 %20, 0
  br i1 %21, label %22, label %31

22:                                               ; preds = %19
  %23 = load i64, ptr %5, align 8, !tbaa !7
  %24 = load ptr, ptr %8, align 8, !tbaa !13
  %25 = getelementptr inbounds nuw %struct.RNode_LIST, ptr %24, i32 0, i32 2
  %26 = load i64, ptr %25, align 8, !tbaa !461
  %27 = call i64 (i64, ptr, ...) @rb_str_catf(i64 noundef %23, ptr noundef @.str.260, i64 noundef %26)
  br label %28

28:                                               ; preds = %22
  %29 = load i64, ptr %5, align 8, !tbaa !7
  %30 = call i64 @rbimpl_str_cat_cstr(i64 noundef %29, ptr noundef @.str.24)
  store i32 0, ptr %9, align 4, !tbaa !16
  br label %19, !llvm.loop !749

31:                                               ; preds = %19
  %32 = load i64, ptr %5, align 8, !tbaa !7
  %33 = load i64, ptr %6, align 8, !tbaa !7
  call void @add_indent(i64 noundef %32, i64 noundef %33)
  %34 = load i64, ptr %5, align 8, !tbaa !7
  %35 = load i32, ptr %7, align 4, !tbaa !16
  %36 = icmp ne i32 %35, 0
  %37 = select i1 %36, i64 17, i64 7
  %38 = trunc i64 %37 to i32
  %39 = call i64 (i64, ptr, ...) @rb_str_catf(i64 noundef %34, ptr noundef @.str.13, i32 noundef %38, ptr noundef @.str.486)
  %40 = load i64, ptr %6, align 8, !tbaa !7
  %41 = load ptr, ptr %10, align 8, !tbaa !18
  %42 = call i64 @rb_str_cat_cstr(i64 noundef %40, ptr noundef %41)
  store i32 1, ptr %9, align 4, !tbaa !16
  br label %43

43:                                               ; preds = %53, %31
  %44 = load i32, ptr %9, align 4, !tbaa !16
  %45 = icmp ne i32 %44, 0
  br i1 %45, label %46, label %59

46:                                               ; preds = %43
  %47 = load i64, ptr %5, align 8, !tbaa !7
  %48 = load i64, ptr %6, align 8, !tbaa !7
  %49 = load i32, ptr %7, align 4, !tbaa !16
  %50 = load ptr, ptr %8, align 8, !tbaa !13
  %51 = getelementptr inbounds nuw %struct.RNode_LIST, ptr %50, i32 0, i32 1
  %52 = load ptr, ptr %51, align 8, !tbaa !506
  call void @dump_node(i64 noundef %47, i64 noundef %48, i32 noundef %49, ptr noundef %52)
  br label %53

53:                                               ; preds = %46
  %54 = load i64, ptr %6, align 8, !tbaa !7
  %55 = load i64, ptr %6, align 8, !tbaa !7
  %56 = call i64 @RSTRING_LEN(i64 noundef %55) #14
  %57 = sub i64 %56, 4
  %58 = call i64 @rb_str_resize(i64 noundef %54, i64 noundef %57)
  store i32 0, ptr %9, align 4, !tbaa !16
  br label %43, !llvm.loop !750

59:                                               ; preds = %43
  br label %60

60:                                               ; preds = %103, %59
  %61 = load ptr, ptr %8, align 8, !tbaa !13
  %62 = getelementptr inbounds nuw %struct.RNode_LIST, ptr %61, i32 0, i32 3
  %63 = load ptr, ptr %62, align 8, !tbaa !509
  %64 = icmp ne ptr %63, null
  br i1 %64, label %65, label %70

65:                                               ; preds = %60
  %66 = load ptr, ptr %8, align 8, !tbaa !13
  %67 = getelementptr inbounds nuw %struct.RNode_LIST, ptr %66, i32 0, i32 3
  %68 = load ptr, ptr %67, align 8, !tbaa !509
  %69 = call zeroext i1 @nd_type_p(ptr noundef %68, i32 noundef 43)
  br label %70

70:                                               ; preds = %65, %60
  %71 = phi i1 [ false, %60 ], [ %69, %65 ]
  br i1 %71, label %72, label %104

72:                                               ; preds = %70
  %73 = load ptr, ptr %8, align 8, !tbaa !13
  %74 = getelementptr inbounds nuw %struct.RNode_LIST, ptr %73, i32 0, i32 3
  %75 = load ptr, ptr %74, align 8, !tbaa !509
  store ptr %75, ptr %8, align 8, !tbaa !13
  %76 = load i64, ptr %5, align 8, !tbaa !7
  %77 = load i64, ptr %6, align 8, !tbaa !7
  call void @add_indent(i64 noundef %76, i64 noundef %77)
  %78 = load i64, ptr %5, align 8, !tbaa !7
  %79 = load i32, ptr %7, align 4, !tbaa !16
  %80 = icmp ne i32 %79, 0
  %81 = select i1 %80, i64 17, i64 7
  %82 = trunc i64 %81 to i32
  %83 = call i64 (i64, ptr, ...) @rb_str_catf(i64 noundef %78, ptr noundef @.str.13, i32 noundef %82, ptr noundef @.str.486)
  %84 = load i64, ptr %6, align 8, !tbaa !7
  %85 = load ptr, ptr %10, align 8, !tbaa !18
  %86 = call i64 @rb_str_cat_cstr(i64 noundef %84, ptr noundef %85)
  store i32 1, ptr %9, align 4, !tbaa !16
  br label %87

87:                                               ; preds = %97, %72
  %88 = load i32, ptr %9, align 4, !tbaa !16
  %89 = icmp ne i32 %88, 0
  br i1 %89, label %90, label %103

90:                                               ; preds = %87
  %91 = load i64, ptr %5, align 8, !tbaa !7
  %92 = load i64, ptr %6, align 8, !tbaa !7
  %93 = load i32, ptr %7, align 4, !tbaa !16
  %94 = load ptr, ptr %8, align 8, !tbaa !13
  %95 = getelementptr inbounds nuw %struct.RNode_LIST, ptr %94, i32 0, i32 1
  %96 = load ptr, ptr %95, align 8, !tbaa !506
  call void @dump_node(i64 noundef %91, i64 noundef %92, i32 noundef %93, ptr noundef %96)
  br label %97

97:                                               ; preds = %90
  %98 = load i64, ptr %6, align 8, !tbaa !7
  %99 = load i64, ptr %6, align 8, !tbaa !7
  %100 = call i64 @RSTRING_LEN(i64 noundef %99) #14
  %101 = sub i64 %100, 4
  %102 = call i64 @rb_str_resize(i64 noundef %98, i64 noundef %101)
  store i32 0, ptr %9, align 4, !tbaa !16
  br label %87, !llvm.loop !751

103:                                              ; preds = %87
  br label %60, !llvm.loop !752

104:                                              ; preds = %70
  store ptr @.str.12, ptr %10, align 8, !tbaa !18
  %105 = load i64, ptr %5, align 8, !tbaa !7
  %106 = load i64, ptr %6, align 8, !tbaa !7
  call void @add_indent(i64 noundef %105, i64 noundef %106)
  %107 = load i64, ptr %5, align 8, !tbaa !7
  %108 = load i32, ptr %7, align 4, !tbaa !16
  %109 = icmp ne i32 %108, 0
  %110 = select i1 %109, i64 22, i64 7
  %111 = trunc i64 %110 to i32
  %112 = call i64 (i64, ptr, ...) @rb_str_catf(i64 noundef %107, ptr noundef @.str.13, i32 noundef %111, ptr noundef @.str.487)
  %113 = load i64, ptr %6, align 8, !tbaa !7
  %114 = load ptr, ptr %10, align 8, !tbaa !18
  %115 = call i64 @rb_str_cat_cstr(i64 noundef %113, ptr noundef %114)
  store i32 1, ptr %9, align 4, !tbaa !16
  br label %116

116:                                              ; preds = %126, %104
  %117 = load i32, ptr %9, align 4, !tbaa !16
  %118 = icmp ne i32 %117, 0
  br i1 %118, label %119, label %132

119:                                              ; preds = %116
  %120 = load i64, ptr %5, align 8, !tbaa !7
  %121 = load i64, ptr %6, align 8, !tbaa !7
  %122 = load i32, ptr %7, align 4, !tbaa !16
  %123 = load ptr, ptr %8, align 8, !tbaa !13
  %124 = getelementptr inbounds nuw %struct.RNode_LIST, ptr %123, i32 0, i32 3
  %125 = load ptr, ptr %124, align 8, !tbaa !509
  call void @dump_node(i64 noundef %120, i64 noundef %121, i32 noundef %122, ptr noundef %125)
  br label %126

126:                                              ; preds = %119
  %127 = load i64, ptr %6, align 8, !tbaa !7
  %128 = load i64, ptr %6, align 8, !tbaa !7
  %129 = call i64 @RSTRING_LEN(i64 noundef %128) #14
  %130 = sub i64 %129, 4
  %131 = call i64 @rb_str_resize(i64 noundef %127, i64 noundef %130)
  store i32 0, ptr %9, align 4, !tbaa !16
  br label %116, !llvm.loop !753

132:                                              ; preds = %116
  call void @llvm.lifetime.end.p0(i64 8, ptr %10) #13
  call void @llvm.lifetime.end.p0(i64 4, ptr %9) #13
  ret void
}