; Function Attrs: nounwind sspstrong uwtable
define internal fastcc void @dump_array(i64 noundef %0, i64 noundef %1, i32 noundef %2, ptr noundef nonnull readonly captures(none) %3) unnamed_addr #0 {
.critedge57:
  %4 = tail call i64 @rb_str_concat(i64 noundef %0, i64 noundef %1) #5
  %.not = icmp eq i32 %2, 0
  %5 = select i1 %.not, i32 10, i32 19
  %6 = tail call i64 (i64, ptr, ...) @rb_str_catf(i64 noundef %0, ptr noundef nonnull @.str.21, i32 noundef %5, ptr noundef nonnull @.str.485) #5
  %7 = getelementptr inbounds nuw i8, ptr %3, i64 40
  %8 = load i64, ptr %7, align 8, !tbaa !319
  %9 = tail call i64 (i64, ptr, ...) @rb_str_catf(i64 noundef %0, ptr noundef nonnull @.str.260, i64 noundef %8) #5
  %10 = tail call i64 @rb_str_cat(i64 noundef %0, ptr noundef nonnull @.str.24, i64 noundef 1) #5
  %11 = tail call i64 @rb_str_concat(i64 noundef %0, i64 noundef %1) #5
  %12 = select i1 %.not, i32 7, i32 17
  %13 = tail call i64 (i64, ptr, ...) @rb_str_catf(i64 noundef %0, ptr noundef nonnull @.str.13, i32 noundef %12, ptr noundef nonnull @.str.486) #5
  %14 = tail call i64 @rb_str_cat_cstr(i64 noundef %1, ptr noundef nonnull @default_indent) #5
  %15 = getelementptr inbounds nuw i8, ptr %3, i64 32
  %16 = load ptr, ptr %15, align 8, !tbaa !346
  tail call fastcc void @dump_node(i64 noundef %0, i64 noundef %1, i32 noundef %2, ptr noundef %16)
  %17 = inttoptr i64 %1 to ptr
  %18 = getelementptr inbounds nuw i8, ptr %17, i64 16
  %19 = load i64, ptr %18, align 8, !tbaa !27
  %20 = add i64 %19, -4
  %21 = tail call i64 @rb_str_resize(i64 noundef %1, i64 noundef %20) #5
  %22 = getelementptr inbounds nuw i8, ptr %3, i64 48
  %23 = load ptr, ptr %22, align 8, !tbaa !348
  %.not5364 = icmp eq ptr %23, null
  br i1 %.not5364, label %.critedge, label %.lr.ph.preheader

.lr.ph.preheader:                                 ; preds = %.critedge57
  %.val68 = load i64, ptr %23, align 8, !tbaa !12
  %24 = and i64 %.val68, 32512
  %25 = icmp eq i64 %24, 11008
  br i1 %25, label %.critedge61, label %.critedge

.lr.ph:                                           ; preds = %.critedge61
  %.val = load i64, ptr %38, align 8, !tbaa !12
  %26 = and i64 %.val, 32512
  %27 = icmp eq i64 %26, 11008
  br i1 %27, label %.critedge61, label %.critedge, !llvm.loop !498

.critedge61:                                      ; preds = %.lr.ph.preheader, %.lr.ph
  %28 = phi ptr [ %38, %.lr.ph ], [ %23, %.lr.ph.preheader ]
  %29 = tail call i64 @rb_str_concat(i64 noundef %0, i64 noundef %1) #5
  %30 = tail call i64 (i64, ptr, ...) @rb_str_catf(i64 noundef %0, ptr noundef nonnull @.str.13, i32 noundef %12, ptr noundef nonnull @.str.486) #5
  %31 = tail call i64 @rb_str_cat_cstr(i64 noundef %1, ptr noundef nonnull @default_indent) #5
  %32 = getelementptr inbounds nuw i8, ptr %28, i64 32
  %33 = load ptr, ptr %32, align 8, !tbaa !346
  tail call fastcc void @dump_node(i64 noundef %0, i64 noundef %1, i32 noundef %2, ptr noundef %33)
  %34 = load i64, ptr %18, align 8, !tbaa !27
  %35 = add i64 %34, -4
  %36 = tail call i64 @rb_str_resize(i64 noundef %1, i64 noundef %35) #5
  %37 = getelementptr inbounds nuw i8, ptr %28, i64 48
  %38 = load ptr, ptr %37, align 8, !tbaa !348
  %.not53 = icmp eq ptr %38, null
  br i1 %.not53, label %.critedge, label %.lr.ph, !llvm.loop !498

.critedge:                                        ; preds = %.critedge61, %.lr.ph, %.lr.ph.preheader, %.critedge57
  %.049.lcssa = phi ptr [ %3, %.critedge57 ], [ %3, %.lr.ph.preheader ], [ %28, %.lr.ph ], [ %28, %.critedge61 ]
  %39 = getelementptr inbounds nuw i8, ptr %.049.lcssa, i64 48
  %40 = tail call i64 @rb_str_concat(i64 noundef %0, i64 noundef %1) #5
  %41 = select i1 %.not, i32 7, i32 22
  %42 = tail call i64 (i64, ptr, ...) @rb_str_catf(i64 noundef %0, ptr noundef nonnull @.str.13, i32 noundef %41, ptr noundef nonnull @.str.487) #5
  %43 = tail call i64 @rb_str_cat_cstr(i64 noundef %1, ptr noundef nonnull @.str.12) #5
  %44 = load ptr, ptr %39, align 8, !tbaa !348
  tail call fastcc void @dump_node(i64 noundef %0, i64 noundef %1, i32 noundef %2, ptr noundef %44)
  %45 = load i64, ptr %18, align 8, !tbaa !27
  %46 = add i64 %45, -4
  %47 = tail call i64 @rb_str_resize(i64 noundef %1, i64 noundef %46) #5
  ret void
}